Certificate:
    Data:
        Version: 3 (0x2)
        Serial Number: 4 (0x4)
    Signature Algorithm: sha256WithRSAEncryption
        Issuer: C=GB, L=London, O=Example, OU=Sandobox, CN=Example CA/name=EasyRSA/emailAddress=mail@example.com
        Validity
            Not Before: Nov 18 23:35:01 2014 GMT
            Not After : Nov 15 23:35:01 2024 GMT
        Subject: C=GB, L=London, O=Example, OU=Sandobox, CN=client2/name=EasyRSA/emailAddress=mail@example.com
        Subject Public Key Info:
            Public Key Algorithm: rsaEncryption
                Public-Key: (2048 bit)
                Modulus:
                    00:be:f1:8f:d7:56:2b:a8:52:b0:34:65:b4:0e:ac:
                    2f:e3:db:70:a9:21:d3:1f:dd:5b:48:d3:d8:87:ba:
                    e1:95:15:66:95:47:b8:74:e1:ee:e5:b9:aa:56:3b:
                    4c:5a:bb:9a:00:57:d5:56:56:84:61:80:7a:0b:b1:
                    20:9a:ba:b0:0d:8b:13:32:23:19:dd:00:2c:83:25:
                    3c:ee:58:84:e1:13:1b:47:2e:c8:e4:f0:b2:57:f4:
                    e1:21:f3:f2:12:b1:d7:f9:e2:16:4c:30:07:07:c5:
                    3d:4d:d6:d7:79:62:82:c5:13:70:e2:ee:e9:3d:8e:
                    5c:ed:3d:8b:c4:db:42:a7:c9:d5:2a:c3:f0:7b:8a:
                    aa:45:c5:7d:d6:ce:34:95:d9:c3:26:67:1a:ab:87:
                    2d:92:76:7e:6e:ec:7c:dd:04:00:84:25:57:aa:b8:
                    a2:92:90:db:cf:a7:48:a2:f3:2f:25:fc:57:46:4a:
                    89:0b:e1:3a:8b:0b:7f:5d:5d:73:3d:6b:d3:26:f8:
                    f4:33:32:5f:60:0a:11:dc:89:8f:b1:76:c8:31:89:
                    34:09:9f:bd:bd:7e:cf:96:ed:4d:59:dd:f4:1f:c0:
                    90:9f:fb:ca:7a:15:bf:a7:75:74:5d:96:62:f1:7c:
                    63:82:d8:37:c7:35:9a:03:ea:59:70:62:17:87:c4:
                    69:97
                Exponent: 65537 (0x10001)
        X509v3 extensions:
            X509v3 Basic Constraints: 
                CA:FALSE
            Netscape Comment: 
                Easy-RSA Generated Certificate
            X509v3 Subject Key Identifier: 
                8F:5B:4E:57:76:92:1F:CB:51:63:C0:DA:8B:FE:7A:8C:AF:A6:CE:7B
            X509v3 Authority Key Identifier: 
                keyid:0F:5F:19:78:8C:7D:00:00:B1:A6:2D:5E:0A:A8:9E:D3:48:34:4D:4A
                DirName:/C=GB/L=London/O=Example/OU=Sandobox/CN=Example CA/name=EasyRSA/emailAddress=mail@example.com
                serial:EB:A5:D4:28:AF:FA:29:35

            X509v3 Extended Key Usage: 
                TLS Web Client Authentication
            X509v3 Key Usage: 
                Digital Signature
            X509v3 Subject Alternative Name: 
                DNS:client2
    Signature Algorithm: sha256WithRSAEncryption
         69:da:a2:a4:21:f3:79:87:97:2f:c7:f5:f6:0d:c2:7f:be:07:
         fa:ed:fa:20:90:31:2a:a9:c1:08:d7:42:47:3a:4c:43:87:66:
         8f:8b:e4:43:d7:6f:39:ff:1c:f9:c0:60:cc:16:5b:b4:0e:30:
         7d:b5:78:c9:52:f9:06:6f:3d:6f:bd:8f:93:16:60:bc:3a:e4:
         62:11:c7:58:1b:f5:f0:ba:d2:8e:06:4e:f8:12:ad:4a:36:da:
         94:2c:48:b1:24:50:15:cb:e2:58:ff:52:81:9c:9b:25:c4:bd:
         91:d9:66:76:00:04:98:b0:e4:4c:43:e6:c6:4f:d7:dc:7f:71:
         e8:3b:e2:90:f9:1e:55:fb:bf:de:09:3c:d4:c7:7a:5d:b0:a2:
         a5:a5:7f:71:da:30:f0:52:9e:35:51:68:9b:53:d9:6a:77:41:
         0f:09:25:e1:a8:1b:ce:f3:80:b1:01:0e:b0:06:cb:c3:c2:28:
         38:0b:57:20:97:cd:c4:e0:df:bf:82:74:dd:76:80:a0:cd:c5:
         70:78:04:42:d6:d1:60:81:69:9f:4b:ef:a4:fa:bf:99:9b:4b:
         59:1e:28:02:cc:3c:71:07:77:41:3e:a3:2f:7d:3f:72:8b:94:
         3e:d3:f6:e7:9b:3c:1f:78:6c:43:ca:1b:e1:84:52:a7:c0:19:
         bb:38:b1:2f
-----BEGIN CERTIFICATE-----
MIIE6DCCA9CgAwIBAgIBBDANBgkqhkiG9w0BAQsFADCBizELMAkGA1UEBhMCR0Ix
DzANBgNVBAcTBkxvbmRvbjEQMA4GA1UEChMHRXhhbXBsZTERMA8GA1UECxMIU2Fu
ZG9ib3gxEzARBgNVBAMTCkV4YW1wbGUgQ0ExEDAOBgNVBCkTB0Vhc3lSU0ExHzAd
BgkqhkiG9w0BCQEWEG1haWxAZXhhbXBsZS5jb20wHhcNMTQxMTE4MjMzNTAxWhcN
MjQxMTE1MjMzNTAxWjCBiDELMAkGA1UEBhMCR0IxDzANBgNVBAcTBkxvbmRvbjEQ
MA4GA1UEChMHRXhhbXBsZTERMA8GA1UECxMIU2FuZG9ib3gxEDAOBgNVBAMTB2Ns
aWVudDIxEDAOBgNVBCkTB0Vhc3lSU0ExHzAdBgkqhkiG9w0BCQEWEG1haWxAZXhh
bXBsZS5jb20wggEiMA0GCSqGSIb3DQEBAQUAA4IBDwAwggEKAoIBAQC+8Y/XViuo
UrA0ZbQOrC/j23CpIdMf3VtI09iHuuGVFWaVR7h04e7luapWO0xau5oAV9VWVoRh
gHoLsSCaurANixMyIxndACyDJTzuWIThExtHLsjk8LJX9OEh8/ISsdf54hZMMAcH
xT1N1td5YoLFE3Di7uk9jlztPYvE20KnydUqw/B7iqpFxX3WzjSV2cMmZxqrhy2S
dn5u7HzdBACEJVequKKSkNvPp0ii8y8l/FdGSokL4TqLC39dXXM9a9Mm+PQzMl9g
ChHciY+xdsgxiTQJn729fs+W7U1Z3fQfwJCf+8p6Fb+ndXRdlmLxfGOC2DfHNZoD
6llwYheHxGmXAgMBAAGjggFWMIIBUjAJBgNVHRMEAjAAMC0GCWCGSAGG+EIBDQQg
Fh5FYXN5LVJTQSBHZW5lcmF0ZWQgQ2VydGlmaWNhdGUwHQYDVR0OBBYEFI9bTld2
kh/LUWPA2ov+eoyvps57MIHABgNVHSMEgbgwgbWAFA9fGXiMfQAAsaYtXgqontNI
NE1KoYGRpIGOMIGLMQswCQYDVQQGEwJHQjEPMA0GA1UEBxMGTG9uZG9uMRAwDgYD
VQQKEwdFeGFtcGxlMREwDwYDVQQLEwhTYW5kb2JveDETMBEGA1UEAxMKRXhhbXBs
ZSBDQTEQMA4GA1UEKRMHRWFzeVJTQTEfMB0GCSqGSIb3DQEJARYQbWFpbEBleGFt
cGxlLmNvbYIJAOul1Civ+ik1MBMGA1UdJQQMMAoGCCsGAQUFBwMCMAsGA1UdDwQE
AwIHgDASBgNVHREECzAJggdjbGllbnQyMA0GCSqGSIb3DQEBCwUAA4IBAQBp2qKk
IfN5h5cvx/X2DcJ/vgf67fogkDEqqcEI10JHOkxDh2aPi+RD1285/xz5wGDMFlu0
DjB9tXjJUvkGbz1vvY+TFmC8OuRiEcdYG/XwutKOBk74Eq1KNtqULEixJFAVy+JY
/1KBnJslxL2R2WZ2AASYsORMQ+bGT9fcf3HoO+KQ+R5V+7/eCTzUx3pdsKKlpX9x
2jDwUp41UWibU9lqd0EPCSXhqBvO84CxAQ6wBsvDwig4C1cgl83E4N+/gnTddoCg
zcVweARC1tFggWmfS++k+r+Zm0tZHigCzDxxB3dBPqMvfT9yi5Q+0/bnmzwfeGxD
yhvhhFKnwBm7OLEv
-----END CERTIFICATE-----
