Certificate:
    Data:
        Version: 3 (0x2)
        Serial Number: 3 (0x3)
    Signature Algorithm: sha256WithRSAEncryption
        Issuer: C=GB, L=London, O=Example, OU=Sandobox, CN=Example CA/name=EasyRSA/emailAddress=mail@example.com
        Validity
            Not Before: Nov 18 21:29:14 2014 GMT
            Not After : Nov 15 21:29:14 2024 GMT
        Subject: C=GB, L=London, O=Example, OU=Sandobox, CN=client1/name=EasyRSA/emailAddress=mail@example.com
        Subject Public Key Info:
            Public Key Algorithm: rsaEncryption
                Public-Key: (2048 bit)
                Modulus:
                    00:d4:3b:3b:45:5e:40:32:34:47:20:f0:bd:5b:b7:
                    6d:85:fb:7b:8e:53:9a:f7:ad:93:77:23:db:fe:91:
                    e2:52:be:f7:74:49:11:ed:91:14:41:af:b0:c4:81:
                    57:28:cb:19:d2:fe:91:2b:37:5f:68:82:ea:e2:de:
                    e5:5a:fc:15:91:a4:b5:28:5a:19:ac:29:81:ad:54:
                    bc:96:90:1e:88:a9:50:05:ab:17:de:7d:20:43:35:
                    67:c2:cd:ee:29:82:f3:05:3b:e3:da:f0:f0:aa:09:
                    78:19:73:37:e8:42:72:a5:ce:03:46:1c:58:a1:6a:
                    8e:76:6d:c0:52:9e:e9:3e:93:b1:b8:21:b4:47:de:
                    9a:e4:71:45:e2:88:6d:4a:86:69:4e:44:da:f3:69:
                    f0:fc:b3:54:49:33:9d:20:2d:06:fd:5e:ca:09:5c:
                    6c:2b:b8:11:ba:05:b1:53:cb:48:97:ee:2e:4a:ed:
                    a7:f5:99:be:4e:a9:c6:74:da:d8:dc:ed:ed:00:18:
                    cf:10:fc:8c:b2:73:0e:fd:89:4b:2a:f5:9d:ba:d2:
                    0c:32:fe:58:f8:92:5d:76:18:35:f1:b0:15:68:8e:
                    48:d8:07:04:6f:42:91:84:60:dc:b1:ee:75:3c:cf:
                    81:94:65:d2:6d:d3:91:cb:f7:96:a0:c7:81:7f:5d:
                    6b:91
                Exponent: 65537 (0x10001)
        X509v3 extensions:
            X509v3 Basic Constraints: 
                CA:FALSE
            Netscape Comment: 
                Easy-RSA Generated Certificate
            X509v3 Subject Key Identifier: 
                D4:35:FD:12:1D:61:23:63:2A:7E:17:C4:EA:E4:D8:82:BE:D0:1A:43
            X509v3 Authority Key Identifier: 
                keyid:E9:E0:60:BA:A9:51:28:38:FB:B7:AB:D0:AB:C0:86:6A:E1:24:99:07
                DirName:/C=GB/L=London/O=Example/OU=Sandobox/CN=Example CA/name=EasyRSA/emailAddress=mail@example.com
                serial:F3:83:5A:AB:3F:5A:35:2C

            X509v3 Extended Key Usage: 
                TLS Web Client Authentication
            X509v3 Key Usage: 
                Digital Signature
            X509v3 Subject Alternative Name: 
                DNS:client1
    Signature Algorithm: sha256WithRSAEncryption
         a9:a7:85:30:1e:00:86:17:87:e0:c3:51:ac:f4:cd:22:87:a2:
         da:43:80:2d:6c:8c:51:5c:0d:61:52:b7:e1:64:88:31:92:78:
         9d:07:e7:29:90:f5:3a:a2:2a:2f:87:23:88:f0:fb:a3:35:a0:
         a0:d0:99:96:38:03:0a:1e:47:3b:8e:19:97:e7:bd:e8:29:b6:
         ce:e5:00:dd:22:09:d6:d1:e1:5d:52:ed:3a:42:ff:93:6a:48:
         cc:d1:58:0d:0a:96:60:04:86:3d:1f:94:34:cd:5f:f7:82:df:
         4f:23:d6:75:4e:7c:12:51:bf:77:b0:dd:fa:df:b4:a1:20:72:
         27:b9:6a:71:55:8a:1d:27:eb:51:23:e0:c0:c9:65:a0:8a:e8:
         94:76:22:b8:c4:70:fd:ed:ac:ba:27:37:bf:07:d5:34:e9:d5:
         e1:3b:4e:fe:26:ec:58:da:7c:ad:d5:51:fd:f5:c2:de:0f:ca:
         6b:3c:f5:f2:bd:65:f0:2d:03:28:16:62:83:e5:5d:b4:53:6a:
         61:45:ed:0d:1c:7e:a4:86:da:a6:40:79:40:02:8d:82:7b:cd:
         c6:aa:9b:b6:a5:a1:d0:44:65:bc:7e:53:ed:ab:bc:77:4b:67:
         56:83:92:9d:cc:d5:a9:30:a3:4f:c6:4b:a7:10:0f:7a:00:e4:
         db:f2:43:d8
-----BEGIN CERTIFICATE-----
MIIE6DCCA9CgAwIBAgIBAzANBgkqhkiG9w0BAQsFADCBizELMAkGA1UEBhMCR0Ix
DzANBgNVBAcTBkxvbmRvbjEQMA4GA1UEChMHRXhhbXBsZTERMA8GA1UECxMIU2Fu
ZG9ib3gxEzARBgNVBAMTCkV4YW1wbGUgQ0ExEDAOBgNVBCkTB0Vhc3lSU0ExHzAd
BgkqhkiG9w0BCQEWEG1haWxAZXhhbXBsZS5jb20wHhcNMTQxMTE4MjEyOTE0WhcN
MjQxMTE1MjEyOTE0WjCBiDELMAkGA1UEBhMCR0IxDzANBgNVBAcTBkxvbmRvbjEQ
MA4GA1UEChMHRXhhbXBsZTERMA8GA1UECxMIU2FuZG9ib3gxEDAOBgNVBAMTB2Ns
aWVudDExEDAOBgNVBCkTB0Vhc3lSU0ExHzAdBgkqhkiG9w0BCQEWEG1haWxAZXhh
bXBsZS5jb20wggEiMA0GCSqGSIb3DQEBAQUAA4IBDwAwggEKAoIBAQDUOztFXkAy
NEcg8L1bt22F+3uOU5r3rZN3I9v+keJSvvd0SRHtkRRBr7DEgVcoyxnS/pErN19o
guri3uVa/BWRpLUoWhmsKYGtVLyWkB6IqVAFqxfefSBDNWfCze4pgvMFO+Pa8PCq
CXgZczfoQnKlzgNGHFihao52bcBSnuk+k7G4IbRH3prkcUXiiG1KhmlORNrzafD8
s1RJM50gLQb9XsoJXGwruBG6BbFTy0iX7i5K7af1mb5OqcZ02tjc7e0AGM8Q/Iyy
cw79iUsq9Z260gwy/lj4kl12GDXxsBVojkjYBwRvQpGEYNyx7nU8z4GUZdJt05HL
95agx4F/XWuRAgMBAAGjggFWMIIBUjAJBgNVHRMEAjAAMC0GCWCGSAGG+EIBDQQg
Fh5FYXN5LVJTQSBHZW5lcmF0ZWQgQ2VydGlmaWNhdGUwHQYDVR0OBBYEFNQ1/RId
YSNjKn4XxOrk2IK+0BpDMIHABgNVHSMEgbgwgbWAFOngYLqpUSg4+7er0KvAhmrh
JJkHoYGRpIGOMIGLMQswCQYDVQQGEwJHQjEPMA0GA1UEBxMGTG9uZG9uMRAwDgYD
VQQKEwdFeGFtcGxlMREwDwYDVQQLEwhTYW5kb2JveDETMBEGA1UEAxMKRXhhbXBs
ZSBDQTEQMA4GA1UEKRMHRWFzeVJTQTEfMB0GCSqGSIb3DQEJARYQbWFpbEBleGFt
cGxlLmNvbYIJAPODWqs/WjUsMBMGA1UdJQQMMAoGCCsGAQUFBwMCMAsGA1UdDwQE
AwIHgDASBgNVHREECzAJggdjbGllbnQxMA0GCSqGSIb3DQEBCwUAA4IBAQCpp4Uw
HgCGF4fgw1Gs9M0ih6LaQ4AtbIxRXA1hUrfhZIgxknidB+cpkPU6oiovhyOI8Puj
NaCg0JmWOAMKHkc7jhmX573oKbbO5QDdIgnW0eFdUu06Qv+TakjM0VgNCpZgBIY9
H5Q0zV/3gt9PI9Z1TnwSUb93sN3637ShIHInuWpxVYodJ+tRI+DAyWWgiuiUdiK4
xHD97ay6Jze/B9U06dXhO07+JuxY2nyt1VH99cLeD8prPPXyvWXwLQMoFmKD5V20
U2phRe0NHH6khtqmQHlAAo2Ce83Gqpu2paHQRGW8flPtq7x3S2dWg5KdzNWpMKNP
xkunEA96AOTb8kPY
-----END CERTIFICATE-----
