Certificate:
    Data:
        Version: 3 (0x2)
        Serial Number: 1 (0x1)
    Signature Algorithm: sha256WithRSAEncryption
        Issuer: C=GB, L=London, O=Example, OU=Sandobox, CN=Example CA/name=EasyRSA/emailAddress=mail@example.com
        Validity
            Not Before: Nov 18 23:34:29 2014 GMT
            Not After : Nov 15 23:34:29 2024 GMT
        Subject: C=GB, L=London, O=Example, OU=Sandobox, CN=vpnserver/name=EasyRSA/emailAddress=mail@example.com
        Subject Public Key Info:
            Public Key Algorithm: rsaEncryption
                Public-Key: (2048 bit)
                Modulus:
                    00:f6:a9:93:a0:f3:e8:bb:e3:2e:dd:83:d3:1f:2f:
                    72:ae:64:e8:a0:77:a5:81:09:c0:35:fb:a0:b3:78:
                    b5:eb:a3:5a:63:c6:0b:6f:79:3c:98:61:a1:90:fe:
                    e1:ac:d2:7e:b7:ec:42:92:0c:b6:fc:d0:be:cb:97:
                    e6:d5:02:95:18:93:8e:ef:2b:75:c7:0b:72:f1:de:
                    71:02:c6:96:ef:37:ff:b4:a3:31:46:cf:70:f8:21:
                    8c:10:84:89:86:32:09:be:dc:14:a6:34:b2:3a:21:
                    04:35:38:6b:3e:5a:22:08:21:bc:2a:93:53:e0:eb:
                    ba:f6:6e:8b:a1:51:75:11:46:5d:02:63:d0:8e:bc:
                    8c:c3:77:66:c7:9a:b1:41:b2:40:55:22:7c:71:d0:
                    58:fb:1d:ea:95:1e:66:66:33:c5:80:00:b8:47:74:
                    51:59:30:44:6c:5e:7e:69:c0:1c:8d:c0:86:89:b9:
                    47:8b:b4:c7:7b:c7:28:c4:be:37:d7:63:c1:b8:be:
                    cc:eb:13:f1:c1:ae:39:14:a4:f4:4b:99:45:7a:c8:
                    b3:51:fe:95:b9:a1:d3:8e:29:7d:f4:da:82:f1:2c:
                    9a:ea:41:1c:cc:13:2f:d5:a1:a6:37:4f:62:cb:6f:
                    a3:79:a8:68:bc:a1:92:70:2a:e7:28:d0:76:07:75:
                    09:77
                Exponent: 65537 (0x10001)
        X509v3 extensions:
            X509v3 Basic Constraints: 
                CA:FALSE
            Netscape Cert Type: 
                SSL Server
            Netscape Comment: 
                Easy-RSA Generated Server Certificate
            X509v3 Subject Key Identifier: 
                F2:17:98:7C:BF:61:22:3C:1E:1B:C4:18:47:EF:48:98:57:38:A1:02
            X509v3 Authority Key Identifier: 
                keyid:0F:5F:19:78:8C:7D:00:00:B1:A6:2D:5E:0A:A8:9E:D3:48:34:4D:4A
                DirName:/C=GB/L=London/O=Example/OU=Sandobox/CN=Example CA/name=EasyRSA/emailAddress=mail@example.com
                serial:EB:A5:D4:28:AF:FA:29:35

            X509v3 Extended Key Usage: 
                TLS Web Server Authentication
            X509v3 Key Usage: 
                Digital Signature, Key Encipherment
            X509v3 Subject Alternative Name: 
                DNS:vpnserver
    Signature Algorithm: sha256WithRSAEncryption
         8f:ce:1b:7a:a2:7a:90:53:9f:fb:44:a9:b5:dc:80:16:0b:91:
         5f:21:5d:ca:ff:20:09:04:ea:29:ff:3d:bb:c3:9e:12:91:6c:
         9d:b3:01:72:c1:44:9c:0e:a6:93:21:95:79:3a:e3:d5:80:19:
         a7:74:66:4f:2c:22:e6:59:d8:73:ee:fd:81:0a:e1:c1:4a:11:
         2e:f7:65:a4:eb:59:dc:27:9a:3e:b1:e3:91:4a:ae:78:2d:a3:
         36:f9:b7:87:10:35:2e:b8:fd:83:76:2c:6c:32:24:b2:38:6c:
         c3:b8:8a:9b:24:9f:53:89:aa:16:d1:09:9d:09:8d:e9:e0:f9:
         82:02:dd:7b:da:fb:de:36:da:ba:b9:98:9d:df:c7:67:05:9e:
         50:94:8d:82:87:98:64:41:73:d9:c8:45:e2:f8:b7:cf:d7:ee:
         8b:3a:5f:77:c5:2c:c1:7d:4e:99:e6:10:3e:0f:f2:2c:fd:d4:
         ae:b2:04:db:b2:53:c8:ae:76:99:0d:b8:11:c8:d5:51:ef:59:
         00:03:12:1c:74:e0:ab:d4:4d:20:93:14:aa:14:c4:21:f1:a7:
         6e:13:91:26:24:ad:ab:5b:ef:70:66:0d:ae:70:9c:f2:44:c9:
         34:ab:ee:fa:0a:b9:a5:68:13:f7:66:3c:3e:04:99:b2:80:86:
         8c:ab:86:48
-----BEGIN CERTIFICATE-----
MIIFBjCCA+6gAwIBAgIBATANBgkqhkiG9w0BAQsFADCBizELMAkGA1UEBhMCR0Ix
DzANBgNVBAcTBkxvbmRvbjEQMA4GA1UEChMHRXhhbXBsZTERMA8GA1UECxMIU2Fu
ZG9ib3gxEzARBgNVBAMTCkV4YW1wbGUgQ0ExEDAOBgNVBCkTB0Vhc3lSU0ExHzAd
BgkqhkiG9w0BCQEWEG1haWxAZXhhbXBsZS5jb20wHhcNMTQxMTE4MjMzNDI5WhcN
MjQxMTE1MjMzNDI5WjCBijELMAkGA1UEBhMCR0IxDzANBgNVBAcTBkxvbmRvbjEQ
MA4GA1UEChMHRXhhbXBsZTERMA8GA1UECxMIU2FuZG9ib3gxEjAQBgNVBAMTCXZw
bnNlcnZlcjEQMA4GA1UEKRMHRWFzeVJTQTEfMB0GCSqGSIb3DQEJARYQbWFpbEBl
eGFtcGxlLmNvbTCCASIwDQYJKoZIhvcNAQEBBQADggEPADCCAQoCggEBAPapk6Dz
6LvjLt2D0x8vcq5k6KB3pYEJwDX7oLN4teujWmPGC295PJhhoZD+4azSfrfsQpIM
tvzQvsuX5tUClRiTju8rdccLcvHecQLGlu83/7SjMUbPcPghjBCEiYYyCb7cFKY0
sjohBDU4az5aIgghvCqTU+DruvZui6FRdRFGXQJj0I68jMN3ZseasUGyQFUifHHQ
WPsd6pUeZmYzxYAAuEd0UVkwRGxefmnAHI3Ahom5R4u0x3vHKMS+N9djwbi+zOsT
8cGuORSk9EuZRXrIs1H+lbmh044pffTagvEsmupBHMwTL9WhpjdPYstvo3moaLyh
knAq5yjQdgd1CXcCAwEAAaOCAXIwggFuMAkGA1UdEwQCMAAwEQYJYIZIAYb4QgEB
BAQDAgZAMDQGCWCGSAGG+EIBDQQnFiVFYXN5LVJTQSBHZW5lcmF0ZWQgU2VydmVy
IENlcnRpZmljYXRlMB0GA1UdDgQWBBTyF5h8v2EiPB4bxBhH70iYVzihAjCBwAYD
VR0jBIG4MIG1gBQPXxl4jH0AALGmLV4KqJ7TSDRNSqGBkaSBjjCBizELMAkGA1UE
BhMCR0IxDzANBgNVBAcTBkxvbmRvbjEQMA4GA1UEChMHRXhhbXBsZTERMA8GA1UE
CxMIU2FuZG9ib3gxEzARBgNVBAMTCkV4YW1wbGUgQ0ExEDAOBgNVBCkTB0Vhc3lS
U0ExHzAdBgkqhkiG9w0BCQEWEG1haWxAZXhhbXBsZS5jb22CCQDrpdQor/opNTAT
BgNVHSUEDDAKBggrBgEFBQcDATALBgNVHQ8EBAMCBaAwFAYDVR0RBA0wC4IJdnBu
c2VydmVyMA0GCSqGSIb3DQEBCwUAA4IBAQCPzht6onqQU5/7RKm13IAWC5FfIV3K
/yAJBOop/z27w54SkWydswFywUScDqaTIZV5OuPVgBmndGZPLCLmWdhz7v2BCuHB
ShEu92Wk61ncJ5o+seORSq54LaM2+beHEDUuuP2DdixsMiSyOGzDuIqbJJ9TiaoW
0QmdCY3p4PmCAt172vveNtq6uZid38dnBZ5QlI2Ch5hkQXPZyEXi+LfP1+6LOl93
xSzBfU6Z5hA+D/Is/dSusgTbslPIrnaZDbgRyNVR71kAAxIcdOCr1E0gkxSqFMQh
8aduE5EmJK2rW+9wZg2ucJzyRMk0q+76CrmlaBP3Zjw+BJmygIaMq4ZI
-----END CERTIFICATE-----
