Certificate:
    Data:
        Version: 3 (0x2)
        Serial Number: 1 (0x1)
    Signature Algorithm: sha256WithRSAEncryption
        Issuer: C=GB, L=London, O=Example, OU=Sandobox, CN=Example CA/name=EasyRSA/emailAddress=mail@example.com
        Validity
            Not Before: Nov 18 21:28:41 2014 GMT
            Not After : Nov 15 21:28:41 2024 GMT
        Subject: C=GB, L=London, O=Example, OU=Sandobox, CN=vpnserver/name=EasyRSA/emailAddress=mail@example.com
        Subject Public Key Info:
            Public Key Algorithm: rsaEncryption
                Public-Key: (2048 bit)
                Modulus:
                    00:ba:07:7e:aa:3e:1a:c2:2c:cb:c2:12:8f:f5:0e:
                    22:9d:d8:7c:e6:84:3f:ea:d4:36:e3:c3:4c:0c:45:
                    bc:29:5c:80:17:42:7e:7e:08:f3:5c:3a:3d:ce:b9:
                    ca:28:44:5e:72:87:20:5f:b1:fa:49:3d:a6:08:07:
                    d0:26:58:47:27:36:54:b7:ea:98:74:7a:58:3b:97:
                    12:58:8f:e3:97:ef:2a:f8:57:7e:51:fa:8b:9e:f3:
                    f6:38:f8:e8:c7:c8:27:5c:df:85:00:54:d9:76:58:
                    31:ac:07:21:a4:76:ec:f1:d4:01:d0:a8:30:96:f5:
                    f0:a7:59:b2:fe:59:bd:0c:a4:9c:27:81:a9:03:96:
                    7e:5e:ca:82:22:28:39:73:21:9e:31:c1:a9:0d:2f:
                    c6:81:3b:70:85:0c:e3:09:be:aa:48:57:62:99:58:
                    c8:db:a2:61:a5:4f:e9:5e:c3:2c:51:a5:54:2b:22:
                    2d:10:38:07:9d:ea:50:f4:23:4e:6c:60:02:e7:34:
                    d7:e3:e6:4b:5d:6b:d7:16:07:56:8b:d6:08:b1:db:
                    85:b5:63:98:3b:0f:e7:dc:b2:a9:69:76:a2:6e:be:
                    06:e3:b7:fa:85:65:a4:5b:85:ee:ff:cb:13:7e:f4:
                    ed:05:f0:27:38:0a:3c:2b:93:ab:17:30:17:cd:34:
                    94:35
                Exponent: 65537 (0x10001)
        X509v3 extensions:
            X509v3 Basic Constraints: 
                CA:FALSE
            Netscape Cert Type: 
                SSL Server
            Netscape Comment: 
                Easy-RSA Generated Server Certificate
            X509v3 Subject Key Identifier: 
                29:10:24:89:58:EC:7E:23:80:23:58:AF:A8:94:4E:CE:DA:5D:66:E1
            X509v3 Authority Key Identifier: 
                keyid:E9:E0:60:BA:A9:51:28:38:FB:B7:AB:D0:AB:C0:86:6A:E1:24:99:07
                DirName:/C=GB/L=London/O=Example/OU=Sandobox/CN=Example CA/name=EasyRSA/emailAddress=mail@example.com
                serial:F3:83:5A:AB:3F:5A:35:2C

            X509v3 Extended Key Usage: 
                TLS Web Server Authentication
            X509v3 Key Usage: 
                Digital Signature, Key Encipherment
            X509v3 Subject Alternative Name: 
                DNS:vpnserver
    Signature Algorithm: sha256WithRSAEncryption
         b6:17:1e:04:b4:a8:c9:c0:33:9e:bc:4b:d1:71:44:66:8a:fc:
         93:3b:63:7c:27:19:e0:9b:d6:c4:77:e3:9b:ad:5c:4e:b5:e8:
         df:21:4f:f3:44:6a:d6:12:ce:79:2f:e1:3a:0e:a4:8e:19:ad:
         d7:32:07:d6:c1:c1:ee:e0:74:5b:49:b7:b4:f6:1d:fe:96:81:
         31:d3:48:ae:f3:28:16:8d:bc:c7:63:9b:ca:01:7f:51:7f:7a:
         94:d8:75:52:d3:e8:2d:0e:f7:44:51:87:1e:79:31:1a:2f:8c:
         44:38:78:57:73:98:4a:37:c7:f6:0f:fd:b3:bb:17:9e:78:0f:
         84:71:dd:e3:53:e7:4f:00:50:c1:30:03:7e:6a:7c:e8:57:8d:
         2c:93:e7:cf:ce:1a:4b:04:99:fc:84:06:b5:a1:9d:6f:0b:22:
         68:86:36:4e:9c:38:cb:19:8b:36:cf:fd:c0:18:51:3c:f4:d6:
         f9:e9:81:f3:ad:8a:ea:54:1d:1b:bf:91:9d:76:f7:27:6b:fa:
         75:d8:5c:d4:3b:71:bb:a6:b1:e0:ef:ea:b1:e7:23:a3:16:a9:
         ef:ba:d7:18:5c:f6:80:a2:a5:f9:ae:ce:ac:30:1b:8d:b8:34:
         b0:a4:43:bf:21:eb:12:80:75:f2:46:1c:21:64:c4:23:0c:b6:
         02:f4:29:b7
-----BEGIN CERTIFICATE-----
MIIFBjCCA+6gAwIBAgIBATANBgkqhkiG9w0BAQsFADCBizELMAkGA1UEBhMCR0Ix
DzANBgNVBAcTBkxvbmRvbjEQMA4GA1UEChMHRXhhbXBsZTERMA8GA1UECxMIU2Fu
ZG9ib3gxEzARBgNVBAMTCkV4YW1wbGUgQ0ExEDAOBgNVBCkTB0Vhc3lSU0ExHzAd
BgkqhkiG9w0BCQEWEG1haWxAZXhhbXBsZS5jb20wHhcNMTQxMTE4MjEyODQxWhcN
MjQxMTE1MjEyODQxWjCBijELMAkGA1UEBhMCR0IxDzANBgNVBAcTBkxvbmRvbjEQ
MA4GA1UEChMHRXhhbXBsZTERMA8GA1UECxMIU2FuZG9ib3gxEjAQBgNVBAMTCXZw
bnNlcnZlcjEQMA4GA1UEKRMHRWFzeVJTQTEfMB0GCSqGSIb3DQEJARYQbWFpbEBl
eGFtcGxlLmNvbTCCASIwDQYJKoZIhvcNAQEBBQADggEPADCCAQoCggEBALoHfqo+
GsIsy8ISj/UOIp3YfOaEP+rUNuPDTAxFvClcgBdCfn4I81w6Pc65yihEXnKHIF+x
+kk9pggH0CZYRyc2VLfqmHR6WDuXEliP45fvKvhXflH6i57z9jj46MfIJ1zfhQBU
2XZYMawHIaR27PHUAdCoMJb18KdZsv5ZvQyknCeBqQOWfl7KgiIoOXMhnjHBqQ0v
xoE7cIUM4wm+qkhXYplYyNuiYaVP6V7DLFGlVCsiLRA4B53qUPQjTmxgAuc01+Pm
S11r1xYHVovWCLHbhbVjmDsP59yyqWl2om6+BuO3+oVlpFuF7v/LE3707QXwJzgK
PCuTqxcwF800lDUCAwEAAaOCAXIwggFuMAkGA1UdEwQCMAAwEQYJYIZIAYb4QgEB
BAQDAgZAMDQGCWCGSAGG+EIBDQQnFiVFYXN5LVJTQSBHZW5lcmF0ZWQgU2VydmVy
IENlcnRpZmljYXRlMB0GA1UdDgQWBBQpECSJWOx+I4AjWK+olE7O2l1m4TCBwAYD
VR0jBIG4MIG1gBTp4GC6qVEoOPu3q9CrwIZq4SSZB6GBkaSBjjCBizELMAkGA1UE
BhMCR0IxDzANBgNVBAcTBkxvbmRvbjEQMA4GA1UEChMHRXhhbXBsZTERMA8GA1UE
CxMIU2FuZG9ib3gxEzARBgNVBAMTCkV4YW1wbGUgQ0ExEDAOBgNVBCkTB0Vhc3lS
U0ExHzAdBgkqhkiG9w0BCQEWEG1haWxAZXhhbXBsZS5jb22CCQDzg1qrP1o1LDAT
BgNVHSUEDDAKBggrBgEFBQcDATALBgNVHQ8EBAMCBaAwFAYDVR0RBA0wC4IJdnBu
c2VydmVyMA0GCSqGSIb3DQEBCwUAA4IBAQC2Fx4EtKjJwDOevEvRcURmivyTO2N8
Jxngm9bEd+ObrVxOtejfIU/zRGrWEs55L+E6DqSOGa3XMgfWwcHu4HRbSbe09h3+
loEx00iu8ygWjbzHY5vKAX9Rf3qU2HVS0+gtDvdEUYceeTEaL4xEOHhXc5hKN8f2
D/2zuxeeeA+Ecd3jU+dPAFDBMAN+anzoV40sk+fPzhpLBJn8hAa1oZ1vCyJohjZO
nDjLGYs2z/3AGFE89Nb56YHzrYrqVB0bv5Gddvcna/p12FzUO3G7prHg7+qx5yOj
FqnvutcYXPaAoqX5rs6sMBuNuDSwpEO/IesSgHXyRhwhZMQjDLYC9Cm3
-----END CERTIFICATE-----
