Certificate:
    Data:
        Version: 3 (0x2)
        Serial Number: 3 (0x3)
    Signature Algorithm: sha256WithRSAEncryption
        Issuer: C=GB, L=London, O=Example, OU=Sandobox, CN=Example CA/name=EasyRSA/emailAddress=mail@example.com
        Validity
            Not Before: Nov 18 23:34:54 2014 GMT
            Not After : Nov 15 23:34:54 2024 GMT
        Subject: C=GB, L=London, O=Example, OU=Sandobox, CN=client1/name=EasyRSA/emailAddress=mail@example.com
        Subject Public Key Info:
            Public Key Algorithm: rsaEncryption
                Public-Key: (2048 bit)
                Modulus:
                    00:b6:ea:78:22:b1:6d:30:9d:cc:f1:88:f1:5d:83:
                    8b:e3:24:cf:db:ec:77:6a:5e:4e:30:45:fa:67:2f:
                    70:c0:7d:e6:41:94:a5:66:34:9d:5a:e5:5c:68:4d:
                    5c:ff:c6:af:ef:6a:4c:27:f8:df:6e:00:25:52:46:
                    ca:19:e5:52:b4:8e:62:90:6c:f5:91:28:5e:0b:05:
                    9e:fa:12:b3:64:07:2a:21:09:62:32:81:46:56:c6:
                    cf:2d:69:38:5d:59:fa:22:08:5b:7a:7e:61:11:22:
                    8a:44:c4:b5:43:4e:b2:c9:7a:e6:a5:55:58:1f:1c:
                    89:5a:de:bc:25:9b:4d:a5:ff:7b:27:43:bb:a5:d7:
                    b9:5d:11:45:64:75:92:54:ca:13:06:61:54:2d:d5:
                    48:7f:f3:48:7c:1d:25:96:5d:e2:d3:86:82:0e:15:
                    8e:1e:37:e4:3f:58:19:19:bf:ae:18:91:e9:7a:ad:
                    2a:26:46:bf:68:44:01:16:8c:36:33:82:fd:a7:d7:
                    4c:85:fe:05:dd:c7:ef:d0:22:a8:0a:50:45:f3:99:
                    33:eb:1f:ff:9f:be:de:b1:1d:ec:39:e3:fa:27:ad:
                    e3:c7:ee:81:0f:51:06:b8:83:3e:1b:3f:81:51:d9:
                    85:a1:c8:be:b0:7f:0b:27:d2:6f:c1:e0:71:88:50:
                    51:47
                Exponent: 65537 (0x10001)
        X509v3 extensions:
            X509v3 Basic Constraints: 
                CA:FALSE
            Netscape Comment: 
                Easy-RSA Generated Certificate
            X509v3 Subject Key Identifier: 
                19:68:FB:C0:FF:34:2D:86:50:75:C8:99:EA:93:67:A3:CE:1B:48:10
            X509v3 Authority Key Identifier: 
                keyid:0F:5F:19:78:8C:7D:00:00:B1:A6:2D:5E:0A:A8:9E:D3:48:34:4D:4A
                DirName:/C=GB/L=London/O=Example/OU=Sandobox/CN=Example CA/name=EasyRSA/emailAddress=mail@example.com
                serial:EB:A5:D4:28:AF:FA:29:35

            X509v3 Extended Key Usage: 
                TLS Web Client Authentication
            X509v3 Key Usage: 
                Digital Signature
            X509v3 Subject Alternative Name: 
                DNS:client1
    Signature Algorithm: sha256WithRSAEncryption
         5d:6c:8f:15:2d:f4:f4:b8:aa:37:da:6f:ac:b4:7a:41:f8:4d:
         0c:20:5b:88:c0:22:04:3f:e4:16:f7:1a:5e:d3:cf:6a:8e:21:
         ff:e7:77:6c:15:a3:3f:7b:57:78:9f:5b:0a:26:c4:dc:52:0f:
         b0:3f:d2:d8:84:44:74:e7:b8:56:3e:fb:f7:36:08:42:96:3e:
         66:55:df:6c:db:8e:9b:55:47:64:07:ce:e4:48:b7:eb:ac:27:
         67:07:8a:bc:e4:32:66:ff:3c:2f:52:f8:03:da:59:d7:26:b0:
         78:fd:de:66:61:48:bb:c4:26:25:08:71:c0:12:e0:34:4f:01:
         c0:fe:91:fc:14:75:d2:e6:2f:c9:ce:b3:54:ac:04:3c:6f:a2:
         65:10:66:24:18:2b:d0:1f:a8:2e:40:40:0e:48:38:26:93:e3:
         d8:4e:87:b1:95:24:ad:1b:c2:2b:07:ee:29:48:12:24:d1:4a:
         7d:61:0e:68:81:4e:66:4f:f4:0b:a6:6f:04:8d:59:04:e8:af:
         ec:78:c1:a3:f6:0e:a2:68:7f:67:9e:a1:40:ac:e5:03:41:16:
         4f:53:90:d6:b8:d9:d5:86:24:6f:f1:83:e5:40:07:b9:29:33:
         bd:4f:97:8d:03:01:7b:a6:e7:1f:99:85:73:5d:67:7b:b9:f8:
         58:b5:84:d5
-----BEGIN CERTIFICATE-----
MIIE6DCCA9CgAwIBAgIBAzANBgkqhkiG9w0BAQsFADCBizELMAkGA1UEBhMCR0Ix
DzANBgNVBAcTBkxvbmRvbjEQMA4GA1UEChMHRXhhbXBsZTERMA8GA1UECxMIU2Fu
ZG9ib3gxEzARBgNVBAMTCkV4YW1wbGUgQ0ExEDAOBgNVBCkTB0Vhc3lSU0ExHzAd
BgkqhkiG9w0BCQEWEG1haWxAZXhhbXBsZS5jb20wHhcNMTQxMTE4MjMzNDU0WhcN
MjQxMTE1MjMzNDU0WjCBiDELMAkGA1UEBhMCR0IxDzANBgNVBAcTBkxvbmRvbjEQ
MA4GA1UEChMHRXhhbXBsZTERMA8GA1UECxMIU2FuZG9ib3gxEDAOBgNVBAMTB2Ns
aWVudDExEDAOBgNVBCkTB0Vhc3lSU0ExHzAdBgkqhkiG9w0BCQEWEG1haWxAZXhh
bXBsZS5jb20wggEiMA0GCSqGSIb3DQEBAQUAA4IBDwAwggEKAoIBAQC26ngisW0w
nczxiPFdg4vjJM/b7HdqXk4wRfpnL3DAfeZBlKVmNJ1a5VxoTVz/xq/vakwn+N9u
ACVSRsoZ5VK0jmKQbPWRKF4LBZ76ErNkByohCWIygUZWxs8taThdWfoiCFt6fmER
IopExLVDTrLJeualVVgfHIla3rwlm02l/3snQ7ul17ldEUVkdZJUyhMGYVQt1Uh/
80h8HSWWXeLThoIOFY4eN+Q/WBkZv64Ykel6rSomRr9oRAEWjDYzgv2n10yF/gXd
x+/QIqgKUEXzmTPrH/+fvt6xHew54/onrePH7oEPUQa4gz4bP4FR2YWhyL6wfwsn
0m/B4HGIUFFHAgMBAAGjggFWMIIBUjAJBgNVHRMEAjAAMC0GCWCGSAGG+EIBDQQg
Fh5FYXN5LVJTQSBHZW5lcmF0ZWQgQ2VydGlmaWNhdGUwHQYDVR0OBBYEFBlo+8D/
NC2GUHXImeqTZ6POG0gQMIHABgNVHSMEgbgwgbWAFA9fGXiMfQAAsaYtXgqontNI
NE1KoYGRpIGOMIGLMQswCQYDVQQGEwJHQjEPMA0GA1UEBxMGTG9uZG9uMRAwDgYD
VQQKEwdFeGFtcGxlMREwDwYDVQQLEwhTYW5kb2JveDETMBEGA1UEAxMKRXhhbXBs
ZSBDQTEQMA4GA1UEKRMHRWFzeVJTQTEfMB0GCSqGSIb3DQEJARYQbWFpbEBleGFt
cGxlLmNvbYIJAOul1Civ+ik1MBMGA1UdJQQMMAoGCCsGAQUFBwMCMAsGA1UdDwQE
AwIHgDASBgNVHREECzAJggdjbGllbnQxMA0GCSqGSIb3DQEBCwUAA4IBAQBdbI8V
LfT0uKo32m+stHpB+E0MIFuIwCIEP+QW9xpe089qjiH/53dsFaM/e1d4n1sKJsTc
Ug+wP9LYhER057hWPvv3NghClj5mVd9s246bVUdkB87kSLfrrCdnB4q85DJm/zwv
UvgD2lnXJrB4/d5mYUi7xCYlCHHAEuA0TwHA/pH8FHXS5i/JzrNUrAQ8b6JlEGYk
GCvQH6guQEAOSDgmk+PYToexlSStG8IrB+4pSBIk0Up9YQ5ogU5mT/QLpm8EjVkE
6K/seMGj9g6iaH9nnqFArOUDQRZPU5DWuNnVhiRv8YPlQAe5KTO9T5eNAwF7pucf
mYVzXWd7ufhYtYTV
-----END CERTIFICATE-----
